; Function Attrs: nounwind uwtable
define range(i32 -173, 1) i32 @wolfSSL_FreeHandshakeResources(ptr noundef %0) local_unnamed_addr #0 {
  %2 = icmp eq ptr %0, null
  br i1 %2, label %4, label %3

3:                                                ; preds = %1
  tail call void @FreeHandshakeResources(ptr noundef nonnull %0) #22
  br label %4

4:                                                ; preds = %1, %3
  %.0 = phi i32 [ 0, %3 ], [ -173, %1 ]
  ret i32 %.0
}